; Function Attrs: nounwind uwtable
define internal range(i32 0, 2) i32 @newreno_bind_diagnostic(ptr noundef captures(none) %0, ptr noundef %1) #0 {
  %3 = tail call ptr @OSSL_PARAM_locate_const(ptr noundef %1, ptr noundef nonnull @.str.1) #8
  %4 = icmp eq ptr %3, null
  br i1 %4, label %bind_diag.exit, label %5

5:                                                ; preds = %2
  %6 = getelementptr inbounds nuw i8, ptr %3, i64 8
  %7 = load i32, ptr %6, align 8, !tbaa !33
  %.not.i = icmp eq i32 %7, 2
  br i1 %.not.i, label %8, label %newreno_update_diag.exit

8:                                                ; preds = %5
  %9 = getelementptr inbounds nuw i8, ptr %3, i64 24
  %10 = load i64, ptr %9, align 8, !tbaa !36
  %.not10.i = icmp eq i64 %10, 8
  br i1 %.not10.i, label %11, label %newreno_update_diag.exit

11:                                               ; preds = %8
  %12 = getelementptr inbounds nuw i8, ptr %3, i64 16
  %13 = load ptr, ptr %12, align 8, !tbaa !37
  br label %bind_diag.exit

bind_diag.exit:                                   ; preds = %11, %2
  %.051 = phi ptr [ null, %2 ], [ %13, %11 ]
  %14 = tail call ptr @OSSL_PARAM_locate_const(ptr noundef %1, ptr noundef nonnull @.str.2) #8
  %15 = icmp eq ptr %14, null
  br i1 %15, label %bind_diag.exit29, label %16

16:                                               ; preds = %bind_diag.exit
  %17 = getelementptr inbounds nuw i8, ptr %14, i64 8
  %18 = load i32, ptr %17, align 8, !tbaa !33
  %.not.i26 = icmp eq i32 %18, 2
  br i1 %.not.i26, label %19, label %newreno_update_diag.exit

19:                                               ; preds = %16
  %20 = getelementptr inbounds nuw i8, ptr %14, i64 24
  %21 = load i64, ptr %20, align 8, !tbaa !36
  %.not10.i28 = icmp eq i64 %21, 8
  br i1 %.not10.i28, label %22, label %newreno_update_diag.exit

22:                                               ; preds = %19
  %23 = getelementptr inbounds nuw i8, ptr %14, i64 16
  %24 = load ptr, ptr %23, align 8, !tbaa !37
  br label %bind_diag.exit29

bind_diag.exit29:                                 ; preds = %22, %bind_diag.exit
  %.050 = phi ptr [ null, %bind_diag.exit ], [ %24, %22 ]
  %25 = tail call ptr @OSSL_PARAM_locate_const(ptr noundef %1, ptr noundef nonnull @.str.3) #8
  %26 = icmp eq ptr %25, null
  br i1 %26, label %bind_diag.exit33, label %27

27:                                               ; preds = %bind_diag.exit29
  %28 = getelementptr inbounds nuw i8, ptr %25, i64 8
  %29 = load i32, ptr %28, align 8, !tbaa !33
  %.not.i30 = icmp eq i32 %29, 2
  br i1 %.not.i30, label %30, label %newreno_update_diag.exit

30:                                               ; preds = %27
  %31 = getelementptr inbounds nuw i8, ptr %25, i64 24
  %32 = load i64, ptr %31, align 8, !tbaa !36
  %.not10.i32 = icmp eq i64 %32, 8
  br i1 %.not10.i32, label %33, label %newreno_update_diag.exit

33:                                               ; preds = %30
  %34 = getelementptr inbounds nuw i8, ptr %25, i64 16
  %35 = load ptr, ptr %34, align 8, !tbaa !37
  br label %bind_diag.exit33

bind_diag.exit33:                                 ; preds = %33, %bind_diag.exit29
  %.049 = phi ptr [ null, %bind_diag.exit29 ], [ %35, %33 ]
  %36 = tail call ptr @OSSL_PARAM_locate_const(ptr noundef %1, ptr noundef nonnull @.str.4) #8
  %37 = icmp eq ptr %36, null
  br i1 %37, label %bind_diag.exit37, label %38

38:                                               ; preds = %bind_diag.exit33
  %39 = getelementptr inbounds nuw i8, ptr %36, i64 8
  %40 = load i32, ptr %39, align 8, !tbaa !33
  %.not.i34 = icmp eq i32 %40, 2
  br i1 %.not.i34, label %41, label %newreno_update_diag.exit

41:                                               ; preds = %38
  %42 = getelementptr inbounds nuw i8, ptr %36, i64 24
  %43 = load i64, ptr %42, align 8, !tbaa !36
  %.not10.i36 = icmp eq i64 %43, 8
  br i1 %.not10.i36, label %44, label %newreno_update_diag.exit

44:                                               ; preds = %41
  %45 = getelementptr inbounds nuw i8, ptr %36, i64 16
  %46 = load ptr, ptr %45, align 8, !tbaa !37
  br label %bind_diag.exit37

bind_diag.exit37:                                 ; preds = %44, %bind_diag.exit33
  %.048 = phi ptr [ null, %bind_diag.exit33 ], [ %46, %44 ]
  %47 = tail call ptr @OSSL_PARAM_locate_const(ptr noundef %1, ptr noundef nonnull @.str.5) #8
  %48 = icmp eq ptr %47, null
  br i1 %48, label %bind_diag.exit41, label %49

49:                                               ; preds = %bind_diag.exit37
  %50 = getelementptr inbounds nuw i8, ptr %47, i64 8
  %51 = load i32, ptr %50, align 8, !tbaa !33
  %.not.i38 = icmp eq i32 %51, 2
  br i1 %.not.i38, label %52, label %newreno_update_diag.exit

52:                                               ; preds = %49
  %53 = getelementptr inbounds nuw i8, ptr %47, i64 24
  %54 = load i64, ptr %53, align 8, !tbaa !36
  %.not10.i40 = icmp eq i64 %54, 4
  br i1 %.not10.i40, label %55, label %newreno_update_diag.exit

55:                                               ; preds = %52
  %56 = getelementptr inbounds nuw i8, ptr %47, i64 16
  %57 = load ptr, ptr %56, align 8, !tbaa !37
  br label %bind_diag.exit41

bind_diag.exit41:                                 ; preds = %55, %bind_diag.exit37
  %.047 = phi ptr [ null, %bind_diag.exit37 ], [ %57, %55 ]
  %.not21 = icmp eq ptr %.051, null
  br i1 %.not21, label %60, label %58

58:                                               ; preds = %bind_diag.exit41
  %59 = getelementptr inbounds nuw i8, ptr %0, i64 120
  store ptr %.051, ptr %59, align 8, !tbaa !18
  br label %60

60:                                               ; preds = %58, %bind_diag.exit41
  %.not22 = icmp eq ptr %.050, null
  br i1 %.not22, label %63, label %61

61:                                               ; preds = %60
  %62 = getelementptr inbounds nuw i8, ptr %0, i64 128
  store ptr %.050, ptr %62, align 8, !tbaa !20
  br label %63

63:                                               ; preds = %61, %60
  %.not23 = icmp eq ptr %.049, null
  br i1 %.not23, label %66, label %64

64:                                               ; preds = %63
  %65 = getelementptr inbounds nuw i8, ptr %0, i64 136
  store ptr %.049, ptr %65, align 8, !tbaa !21
  br label %66

66:                                               ; preds = %64, %63
  %.not24 = icmp eq ptr %.048, null
  br i1 %.not24, label %69, label %67

67:                                               ; preds = %66
  %68 = getelementptr inbounds nuw i8, ptr %0, i64 144
  store ptr %.048, ptr %68, align 8, !tbaa !22
  br label %69

69:                                               ; preds = %67, %66
  %.not25 = icmp eq ptr %.047, null
  br i1 %.not25, label %72, label %70

70:                                               ; preds = %69
  %71 = getelementptr inbounds nuw i8, ptr %0, i64 152
  store ptr %.047, ptr %71, align 8, !tbaa !24
  br label %72

72:                                               ; preds = %70, %69
  %73 = getelementptr inbounds nuw i8, ptr %0, i64 120
  %74 = load ptr, ptr %73, align 8, !tbaa !18
  %.not.i42 = icmp eq ptr %74, null
  br i1 %.not.i42, label %78, label %75

75:                                               ; preds = %72
  %76 = getelementptr inbounds nuw i8, ptr %0, i64 48
  %77 = load i64, ptr %76, align 8, !tbaa !14
  store i64 %77, ptr %74, align 8, !tbaa !19
  br label %78

78:                                               ; preds = %75, %72
  %79 = getelementptr inbounds nuw i8, ptr %0, i64 128
  %80 = load ptr, ptr %79, align 8, !tbaa !20
  %.not23.i = icmp eq ptr %80, null
  br i1 %.not23.i, label %84, label %81

81:                                               ; preds = %78
  %82 = getelementptr inbounds nuw i8, ptr %0, i64 64
  %83 = load i64, ptr %82, align 8, !tbaa !17
  store i64 %83, ptr %80, align 8, !tbaa !19
  br label %84

84:                                               ; preds = %81, %78
  %85 = getelementptr inbounds nuw i8, ptr %0, i64 136
  %86 = load ptr, ptr %85, align 8, !tbaa !21
  %.not24.i = icmp eq ptr %86, null
  br i1 %.not24.i, label %90, label %87

87:                                               ; preds = %84
  %88 = getelementptr inbounds nuw i8, ptr %0, i64 24
  %89 = load i64, ptr %88, align 8, !tbaa !16
  store i64 %89, ptr %86, align 8, !tbaa !19
  br label %90

90:                                               ; preds = %87, %84
  %91 = getelementptr inbounds nuw i8, ptr %0, i64 144
  %92 = load ptr, ptr %91, align 8, !tbaa !22
  %.not25.i = icmp eq ptr %92, null
  br i1 %.not25.i, label %96, label %93

93:                                               ; preds = %90
  %94 = getelementptr inbounds nuw i8, ptr %0, i64 56
  %95 = load i64, ptr %94, align 8, !tbaa !23
  store i64 %95, ptr %92, align 8, !tbaa !19
  br label %96

96:                                               ; preds = %93, %90
  %97 = getelementptr inbounds nuw i8, ptr %0, i64 152
  %98 = load ptr, ptr %97, align 8, !tbaa !24
  %.not26.i = icmp eq ptr %98, null
  br i1 %.not26.i, label %newreno_update_diag.exit, label %99

99:                                               ; preds = %96
  %100 = getelementptr inbounds nuw i8, ptr %0, i64 112
  %101 = load i32, ptr %100, align 8, !tbaa !25
  %.not27.i = icmp eq i32 %101, 0
  br i1 %.not27.i, label %102, label %.sink.split.i

102:                                              ; preds = %99
  %103 = getelementptr inbounds nuw i8, ptr %0, i64 64
  %104 = load i64, ptr %103, align 8, !tbaa !17
  %105 = getelementptr inbounds nuw i8, ptr %0, i64 72
  %106 = load i64, ptr %105, align 8, !tbaa !26
  %107 = icmp ult i64 %104, %106
  %..i = select i1 %107, i32 83, i32 65
  br label %.sink.split.i

.sink.split.i:                                    ; preds = %102, %99
  %.sink.i = phi i32 [ 82, %99 ], [ %..i, %102 ]
  store i32 %.sink.i, ptr %98, align 4, !tbaa !27
  br label %newreno_update_diag.exit

newreno_update_diag.exit:                         ; preds = %49, %52, %38, %41, %27, %30, %16, %19, %5, %8, %.sink.split.i, %96
  %.0 = phi i32 [ 1, %96 ], [ 1, %.sink.split.i ], [ 0, %8 ], [ 0, %5 ], [ 0, %19 ], [ 0, %16 ], [ 0, %30 ], [ 0, %27 ], [ 0, %41 ], [ 0, %38 ], [ 0, %52 ], [ 0, %49 ]
  ret i32 %.0
}